target datalayout = "e-m:e-p270:32:32-p271:32:32-p272:64:64-i64:64-i128:128-f80:128-n8:16:32:64-S128"
target triple = "x86_64-pc-linux-gnu"

%struct.jpeg_decompress_struct = type { ptr, ptr, ptr, ptr, i32, i32, ptr, i32, i32, i32, i32, i32, i32, i32, double, i32, i32, i32, i32, i32, i32, i32, i32, i32, i32, i32, i32, i32, i32, i32, i32, i32, i32, ptr, i32, i32, i32, i32, i32, ptr, [4 x ptr], [4 x ptr], [4 x ptr], i32, ptr, i32, i32, [16 x i8], [16 x i8], [16 x i8], i32, i32, i8, i8, i8, i16, i16, i32, i8, i32, ptr, i32, i32, i32, i32, ptr, i32, [4 x ptr], i32, i32, i32, [10 x i32], i32, i32, i32, i32, i32, ptr, ptr, ptr, ptr, ptr, ptr, ptr, ptr, ptr, ptr, ptr }

; Function Attrs: nounwind uwtable
define internal void @h2v1_upsample(ptr noundef %0, ptr noundef %1, ptr noundef %2, ptr noundef %3) #0 {
  %5 = alloca ptr, align 8
  %6 = alloca ptr, align 8
  %7 = alloca ptr, align 8
  %8 = alloca ptr, align 8
  %9 = alloca ptr, align 8
  %10 = alloca ptr, align 8
  %11 = alloca ptr, align 8
  %12 = alloca i8, align 1
  %13 = alloca ptr, align 8
  %14 = alloca i32, align 4
  store ptr %0, ptr %5, align 8, !tbaa !3
  store ptr %1, ptr %6, align 8, !tbaa !45
  store ptr %2, ptr %7, align 8, !tbaa !68
  store ptr %3, ptr %8, align 8, !tbaa !74
  call void @llvm.lifetime.start.p0(i64 8, ptr %9) #3
  %15 = load ptr, ptr %8, align 8, !tbaa !74
  %16 = load ptr, ptr %15, align 8, !tbaa !68
  store ptr %16, ptr %9, align 8, !tbaa !68
  call void @llvm.lifetime.start.p0(i64 8, ptr %10) #3
  call void @llvm.lifetime.start.p0(i64 8, ptr %11) #3
  call void @llvm.lifetime.start.p0(i64 1, ptr %12) #3
  call void @llvm.lifetime.start.p0(i64 8, ptr %13) #3
  call void @llvm.lifetime.start.p0(i64 4, ptr %14) #3
  store i32 0, ptr %14, align 4, !tbaa !55
  br label %17

17:                                               ; preds = %55, %4
  %18 = load i32, ptr %14, align 4, !tbaa !55
  %19 = load ptr, ptr %5, align 8, !tbaa !3
  %20 = getelementptr inbounds nuw %struct.jpeg_decompress_struct, ptr %19, i32 0, i32 62
  %21 = load i32, ptr %20, align 4, !tbaa !63
  %22 = icmp slt i32 %18, %21
  br i1 %22, label %23, label %58

23:                                               ; preds = %17
  %24 = load ptr, ptr %7, align 8, !tbaa !68
  %25 = load i32, ptr %14, align 4, !tbaa !55
  %26 = sext i32 %25 to i64
  %27 = getelementptr inbounds ptr, ptr %24, i64 %26
  %28 = load ptr, ptr %27, align 8, !tbaa !81
  store ptr %28, ptr %10, align 8, !tbaa !81
  %29 = load ptr, ptr %9, align 8, !tbaa !68
  %30 = load i32, ptr %14, align 4, !tbaa !55
  %31 = sext i32 %30 to i64
  %32 = getelementptr inbounds ptr, ptr %29, i64 %31
  %33 = load ptr, ptr %32, align 8, !tbaa !81
  store ptr %33, ptr %11, align 8, !tbaa !81
  %34 = load ptr, ptr %11, align 8, !tbaa !81
  %35 = load ptr, ptr %5, align 8, !tbaa !3
  %36 = getelementptr inbounds nuw %struct.jpeg_decompress_struct, ptr %35, i32 0, i32 27
  %37 = load i32, ptr %36, align 8, !tbaa !67
  %38 = zext i32 %37 to i64
  %39 = getelementptr inbounds nuw i8, ptr %34, i64 %38
  store ptr %39, ptr %13, align 8, !tbaa !81
  br label %40

40:                                               ; preds = %44, %23
  %41 = load ptr, ptr %11, align 8, !tbaa !81
  %42 = load ptr, ptr %13, align 8, !tbaa !81
  %43 = icmp ult ptr %41, %42
  br i1 %43, label %44, label %54

44:                                               ; preds = %40
  %45 = load ptr, ptr %10, align 8, !tbaa !81
  %46 = getelementptr inbounds nuw i8, ptr %45, i32 1
  store ptr %46, ptr %10, align 8, !tbaa !81
  %47 = load i8, ptr %45, align 1, !tbaa !39
  store i8 %47, ptr %12, align 1, !tbaa !39
  %48 = load i8, ptr %12, align 1, !tbaa !39
  %49 = load ptr, ptr %11, align 8, !tbaa !81
  %50 = getelementptr inbounds nuw i8, ptr %49, i32 1
  store ptr %50, ptr %11, align 8, !tbaa !81
  store i8 %48, ptr %49, align 1, !tbaa !39
  %51 = load i8, ptr %12, align 1, !tbaa !39
  %52 = load ptr, ptr %11, align 8, !tbaa !81
  %53 = getelementptr inbounds nuw i8, ptr %52, i32 1
  store ptr %53, ptr %11, align 8, !tbaa !81
  store i8 %51, ptr %52, align 1, !tbaa !39
  br label %40, !llvm.loop !84

54:                                               ; preds = %40
  br label %55

55:                                               ; preds = %54
  %56 = load i32, ptr %14, align 4, !tbaa !55
  %57 = add nsw i32 %56, 1
  store i32 %57, ptr %14, align 4, !tbaa !55
  br label %17, !llvm.loop !85

58:                                               ; preds = %17
  call void @llvm.lifetime.end.p0(i64 4, ptr %14) #3
  call void @llvm.lifetime.end.p0(i64 8, ptr %13) #3
  call void @llvm.lifetime.end.p0(i64 1, ptr %12) #3
  call void @llvm.lifetime.end.p0(i64 8, ptr %11) #3
  call void @llvm.lifetime.end.p0(i64 8, ptr %10) #3
  call void @llvm.lifetime.end.p0(i64 8, ptr %9) #3
  ret void
}