; Function Attrs: nofree norecurse nosync nounwind memory(readwrite, inaccessiblemem: none) uwtable
define internal void @h2v1_upsample(ptr noundef readonly captures(none) %0, ptr readnone captures(none) %1, ptr noundef readonly captures(none) %2, ptr noundef readonly captures(none) %3) #4 {
  %5 = load ptr, ptr %3, align 8, !tbaa !71
  %6 = getelementptr inbounds nuw i8, ptr %0, i64 412
  %7 = load i32, ptr %6, align 4, !tbaa !59
  %8 = icmp sgt i32 %7, 0
  br i1 %8, label %.lr.ph22, label %._crit_edge23

.lr.ph22:                                         ; preds = %4
  %9 = getelementptr inbounds nuw i8, ptr %0, i64 136
  br label %10

10:                                               ; preds = %.lr.ph22, %._crit_edge
  %11 = phi i32 [ %7, %.lr.ph22 ], [ %24, %._crit_edge ]
  %indvars.iv = phi i64 [ 0, %.lr.ph22 ], [ %indvars.iv.next, %._crit_edge ]
  %12 = getelementptr inbounds nuw ptr, ptr %5, i64 %indvars.iv
  %13 = load ptr, ptr %12, align 8, !tbaa !76
  %14 = load i32, ptr %9, align 8, !tbaa !65
  %15 = zext i32 %14 to i64
  %16 = getelementptr inbounds nuw i8, ptr %13, i64 %15
  %.not = icmp eq i32 %14, 0
  br i1 %.not, label %._crit_edge, label %.lr.ph.preheader

.lr.ph.preheader:                                 ; preds = %10
  %17 = getelementptr inbounds nuw ptr, ptr %2, i64 %indvars.iv
  %18 = load ptr, ptr %17, align 8, !tbaa !76
  br label %.lr.ph

.lr.ph:                                           ; preds = %.lr.ph.preheader, %.lr.ph
  %.01619 = phi ptr [ %19, %.lr.ph ], [ %18, %.lr.ph.preheader ]
  %.01718 = phi ptr [ %22, %.lr.ph ], [ %13, %.lr.ph.preheader ]
  %19 = getelementptr inbounds nuw i8, ptr %.01619, i64 1
  %20 = load i8, ptr %.01619, align 1, !tbaa !37
  %21 = getelementptr inbounds nuw i8, ptr %.01718, i64 1
  store i8 %20, ptr %.01718, align 1, !tbaa !37
  %22 = getelementptr inbounds nuw i8, ptr %.01718, i64 2
  store i8 %20, ptr %21, align 1, !tbaa !37
  %23 = icmp ult ptr %22, %16
  br i1 %23, label %.lr.ph, label %._crit_edge.loopexit, !llvm.loop !79

._crit_edge.loopexit:                             ; preds = %.lr.ph
  %.pre = load i32, ptr %6, align 4, !tbaa !59
  br label %._crit_edge

._crit_edge:                                      ; preds = %._crit_edge.loopexit, %10
  %24 = phi i32 [ %.pre, %._crit_edge.loopexit ], [ %11, %10 ]
  %indvars.iv.next = add nuw nsw i64 %indvars.iv, 1
  %25 = sext i32 %24 to i64
  %26 = icmp slt i64 %indvars.iv.next, %25
  br i1 %26, label %10, label %._crit_edge23, !llvm.loop !80

._crit_edge23:                                    ; preds = %._crit_edge, %4
  ret void
}